target datalayout = "e-m:e-p270:32:32-p271:32:32-p272:64:64-i64:64-i128:128-f80:128-n8:16:32:64-S128"
target triple = "x86_64-pc-linux-gnu"

@trtable = internal global ptr null, align 8

; Function Attrs: inlinehint nounwind uwtable
define internal ptr @ossl_check_const_X509_TRUST_sk_type(ptr noundef %0) #3 {
  %2 = alloca ptr, align 8
  store ptr %0, ptr %2, align 8, !tbaa !53
  %3 = load ptr, ptr %2, align 8, !tbaa !53
  ret ptr %3
}

; Function Attrs: nounwind uwtable
define i32 @X509_TRUST_get_count() #0 {
  %1 = alloca i32, align 4
  %2 = load ptr, ptr @trtable, align 8, !tbaa !53
  %3 = icmp ne ptr %2, null
  br i1 %3, label %5, label %4

4:                                                ; preds = %0
  store i32 8, ptr %1, align 4
  br label %12

5:                                                ; preds = %0
  %6 = load ptr, ptr @trtable, align 8, !tbaa !53
  %7 = call ptr @ossl_check_const_X509_TRUST_sk_type(ptr noundef %6)
  %8 = call i32 @OPENSSL_sk_num(ptr noundef %7)
  %9 = sext i32 %8 to i64
  %10 = add i64 %9, 8
  %11 = trunc i64 %10 to i32
  store i32 %11, ptr %1, align 4
  br label %12

12:                                               ; preds = %5, %4
  %13 = load i32, ptr %1, align 4
  ret i32 %13
}