; Function Attrs: nounwind uwtable
define i32 @X509_TRUST_get_count() local_unnamed_addr #2 {
  %1 = load ptr, ptr @trtable, align 8, !tbaa !7
  %.not = icmp eq ptr %1, null
  br i1 %.not, label %5, label %2

2:                                                ; preds = %0
  %3 = tail call i32 @OPENSSL_sk_num(ptr noundef nonnull %1) #6
  %4 = add i32 %3, 8
  br label %5

5:                                                ; preds = %0, %2
  %.0 = phi i32 [ %4, %2 ], [ 8, %0 ]
  ret i32 %.0
}